Certificate:
    Data:
        Version: 3 (0x2)
        Serial Number: 2 (0x2)
    Signature Algorithm: sha1WithRSAEncryption
        Issuer: C=FR, ST=IDF, L=Paris, O=FoobarCA, CN=*.local.fr
        Validity
            Not Before: Aug 14 16:17:48 2014 GMT
            Not After : Aug 14 16:17:48 2015 GMT
        Subject: C=FR, ST=IDF, L=Paris, O=browser, OU=, CN=browser.local.fr
        Subject Public Key Info:
            Public Key Algorithm: rsaEncryption
                Public-Key: (2048 bit)
                Modulus:
                    00:a4:bd:a1:b9:6a:75:d4:30:aa:b3:7c:fd:3d:a8:
                    a7:52:cb:d6:12:dd:50:5d:54:63:45:0c:c6:21:94:
                    75:53:8a:e7:88:fd:24:0c:b2:57:cb:35:5a:a1:66:
                    91:84:07:89:d2:29:a8:7d:af:f0:1b:ad:a7:5f:5d:
                    3e:bf:cf:8f:4e:d8:cd:cb:e0:25:0f:c4:1f:87:21:
                    86:0a:90:ce:bf:6d:70:61:21:32:97:9d:50:53:bb:
                    2a:64:45:b5:dc:79:53:0d:57:fe:20:dc:c9:27:e7:
                    68:4d:bb:2f:74:f1:3e:4a:3d:1b:d9:9d:cb:2b:70:
                    2e:04:10:a5:b8:15:8f:72:d4:76:87:eb:1c:5d:5e:
                    a4:f5:10:ee:f6:4e:16:ea:54:30:bd:1c:ed:ca:90:
                    46:ea:e7:d3:87:41:f3:09:17:b8:c3:1a:a2:00:c0:
                    db:05:0c:f5:f9:ad:8e:01:0a:3b:57:18:3d:39:cb:
                    e6:54:bf:e5:35:99:5e:0d:dd:18:ed:38:30:74:f7:
                    f4:52:e7:b5:3f:0f:a1:10:c7:fd:37:09:0b:a0:2d:
                    a8:77:9b:1f:ff:43:c5:e1:f8:94:35:26:32:94:21:
                    b9:76:72:e2:0b:ae:5c:1f:bc:97:98:59:41:2c:99:
                    e1:fe:3f:ed:1d:bb:45:bb:f1:5b:f7:11:80:96:2d:
                    d2:47
                Exponent: 65537 (0x10001)
        X509v3 extensions:
            X509v3 Basic Constraints: 
                CA:FALSE
            Netscape Comment: 
                OpenSSL Generated Certificate
            X509v3 Subject Key Identifier: 
                D2:DF:BE:EA:48:A1:09:E2:BC:3A:BE:23:EF:E4:E6:24:4F:09:EE:F8
            X509v3 Authority Key Identifier: 
                keyid:3B:6D:6B:08:12:96:B8:30:C1:CF:76:FD:AB:09:87:F2:5F:2F:66:F3

    Signature Algorithm: sha1WithRSAEncryption
         9b:d2:53:e5:87:6a:8b:c8:16:ff:3e:62:7d:60:5f:e4:af:d6:
         b4:17:0a:69:53:41:41:28:b8:60:37:c7:0e:c4:78:a5:8b:51:
         80:87:6c:2a:d5:4a:4a:ad:d4:85:a9:02:62:12:c5:20:b7:32:
         8c:92:9c:12:0d:9c:42:a9:13:c3:a7:0d:91:ec:3d:2b:f8:f5:
         51:99:8f:69:f5:b4:7c:52:86:17:9e:0f:a9:41:d2:f2:c1:6a:
         4e:04:d1:47:c0:87:26:30:ca:9d:b4:90:fb:e2:3a:ea:f8:10:
         67:3d:5c:29:58:92:21:e9:94:03:1e:4c:64:80:66:5a:58:b0:
         30:5d
-----BEGIN CERTIFICATE-----
MIIDKzCCApSgAwIBAgIBAjANBgkqhkiG9w0BAQUFADBTMQswCQYDVQQGEwJGUjEM
MAoGA1UECAwDSURGMQ4wDAYDVQQHDAVQYXJpczERMA8GA1UECgwIRm9vYmFyQ0Ex
EzARBgNVBAMMCioubG9jYWwuZnIwHhcNMTQwODE0MTYxNzQ4WhcNMTUwODE0MTYx
NzQ4WjBjMQswCQYDVQQGEwJGUjEMMAoGA1UECBMDSURGMQ4wDAYDVQQHEwVQYXJp
czEQMA4GA1UEChMHYnJvd3NlcjEJMAcGA1UECxMAMRkwFwYDVQQDExBicm93c2Vy
LmxvY2FsLmZyMIIBIjANBgkqhkiG9w0BAQEFAAOCAQ8AMIIBCgKCAQEApL2huWp1
1DCqs3z9PainUsvWEt1QXVRjRQzGIZR1U4rniP0kDLJXyzVaoWaRhAeJ0imofa/w
G62nX10+v8+PTtjNy+AlD8QfhyGGCpDOv21wYSEyl51QU7sqZEW13HlTDVf+INzJ
J+doTbsvdPE+Sj0b2Z3LK3AuBBCluBWPctR2h+scXV6k9RDu9k4W6lQwvRztypBG
6ufTh0HzCRe4wxqiAMDbBQz1+a2OAQo7Vxg9OcvmVL/lNZleDd0Y7TgwdPf0Uue1
Pw+hEMf9NwkLoC2od5sf/0PF4fiUNSYylCG5dnLiC65cH7yXmFlBLJnh/j/tHbtF
u/Fb9xGAli3SRwIDAQABo3sweTAJBgNVHRMEAjAAMCwGCWCGSAGG+EIBDQQfFh1P
cGVuU1NMIEdlbmVyYXRlZCBDZXJ0aWZpY2F0ZTAdBgNVHQ4EFgQU0t++6kihCeK8
Or4j7+TmJE8J7vgwHwYDVR0jBBgwFoAUO21rCBKWuDDBz3b9qwmH8l8vZvMwDQYJ
KoZIhvcNAQEFBQADgYEAm9JT5Ydqi8gW/z5ifWBf5K/WtBcKaVNBQSi4YDfHDsR4
pYtRgIdsKtVKSq3UhakCYhLFILcyjJKcEg2cQqkTw6cNkew9K/j1UZmPafW0fFKG
F54PqUHS8sFqTgTRR8CHJjDKnbSQ++I66vgQZz1cKViSIemUAx5MZIBmWliwMF0=
-----END CERTIFICATE-----
