Certificate:
    Data:
        Version: 3 (0x2)
        Serial Number: 1 (0x1)
    Signature Algorithm: sha1WithRSAEncryption
        Issuer: C=FR, ST=IDF, L=Paris, O=FoobarCA, CN=*.local.fr
        Validity
            Not Before: Aug 14 16:17:32 2014 GMT
            Not After : Aug 14 16:17:32 2015 GMT
        Subject: C=FR, ST=IDF, L=Paris, O=Foobar, OU=, CN=foobar.local.fr
        Subject Public Key Info:
            Public Key Algorithm: rsaEncryption
                Public-Key: (2048 bit)
                Modulus:
                    00:a0:d9:7a:f5:7e:33:91:5d:ab:5e:e6:d7:9b:83:
                    dc:3e:e8:fb:e5:a2:9e:3d:5d:97:c8:af:ff:ee:2f:
                    b6:58:6d:69:a7:1e:bd:f9:8a:d2:b3:9a:50:6b:37:
                    ce:37:e9:07:e3:d7:a0:37:7a:eb:6e:57:85:04:9a:
                    84:f8:a9:f7:8c:c1:4a:cd:1b:94:54:a1:f4:ac:48:
                    fd:41:6f:50:d7:44:65:bb:20:62:a1:fc:3d:eb:56:
                    e2:b5:6a:68:25:0b:31:31:42:fe:f4:db:79:dc:ff:
                    0a:9c:0e:32:99:a6:85:eb:2b:44:39:91:b0:68:a3:
                    5b:c7:3d:c9:ae:d8:aa:cf:2e:95:90:39:88:fe:4e:
                    9a:8e:ea:e4:e7:de:f7:c3:3d:cd:c0:43:89:37:e4:
                    a9:2e:34:52:2d:a6:82:a2:72:5d:f8:95:bf:fa:f7:
                    b6:db:2e:04:2b:dc:83:24:63:24:a6:96:a0:e7:eb:
                    19:2e:db:5f:94:2b:ac:99:97:2f:51:c8:57:cd:7a:
                    ab:43:af:84:7f:67:e9:d2:82:3e:9c:34:2a:80:3b:
                    c2:ec:0f:80:9a:64:12:8a:95:c6:7f:4c:2e:3a:9d:
                    5d:eb:31:1d:5c:5c:d0:3e:d8:08:12:e7:4e:69:9d:
                    ec:c1:93:80:b5:3c:86:6c:11:85:fb:03:8c:d6:ce:
                    5e:91
                Exponent: 65537 (0x10001)
        X509v3 extensions:
            X509v3 Basic Constraints: 
                CA:FALSE
            Netscape Comment: 
                OpenSSL Generated Certificate
            X509v3 Subject Key Identifier: 
                22:BD:05:92:0B:04:FE:0B:D8:F3:25:41:37:6E:3B:09:FA:C8:A9:9F
            X509v3 Authority Key Identifier: 
                keyid:3B:6D:6B:08:12:96:B8:30:C1:CF:76:FD:AB:09:87:F2:5F:2F:66:F3

    Signature Algorithm: sha1WithRSAEncryption
         5f:07:a1:a1:ca:f2:69:f3:c0:20:db:b3:d9:97:d3:d8:cc:4a:
         e6:ba:cd:97:48:95:90:23:a9:a4:cb:20:37:ca:97:65:95:9a:
         c5:63:bb:8a:75:b1:0d:a0:01:6a:b2:1e:e5:34:dd:bb:fe:d4:
         8d:c7:46:71:43:94:56:9a:04:cd:75:93:2d:f6:ff:0b:19:91:
         67:52:d7:bf:ab:7e:84:33:42:47:df:d0:64:d0:03:11:70:d5:
         48:3a:b6:5a:c3:05:f9:c6:d0:51:d7:17:ab:49:0f:34:55:99:
         71:05:14:17:ab:9f:31:ed:98:fb:57:42:c3:57:80:14:ca:3c:
         83:41
-----BEGIN CERTIFICATE-----
MIIDKTCCApKgAwIBAgIBATANBgkqhkiG9w0BAQUFADBTMQswCQYDVQQGEwJGUjEM
MAoGA1UECAwDSURGMQ4wDAYDVQQHDAVQYXJpczERMA8GA1UECgwIRm9vYmFyQ0Ex
EzARBgNVBAMMCioubG9jYWwuZnIwHhcNMTQwODE0MTYxNzMyWhcNMTUwODE0MTYx
NzMyWjBhMQswCQYDVQQGEwJGUjEMMAoGA1UECBMDSURGMQ4wDAYDVQQHEwVQYXJp
czEPMA0GA1UEChMGRm9vYmFyMQkwBwYDVQQLEwAxGDAWBgNVBAMTD2Zvb2Jhci5s
b2NhbC5mcjCCASIwDQYJKoZIhvcNAQEBBQADggEPADCCAQoCggEBAKDZevV+M5Fd
q17m15uD3D7o++Winj1dl8iv/+4vtlhtaacevfmK0rOaUGs3zjfpB+PXoDd6625X
hQSahPip94zBSs0blFSh9KxI/UFvUNdEZbsgYqH8PetW4rVqaCULMTFC/vTbedz/
CpwOMpmmhesrRDmRsGijW8c9ya7Yqs8ulZA5iP5Omo7q5Ofe98M9zcBDiTfkqS40
Ui2mgqJyXfiVv/r3ttsuBCvcgyRjJKaWoOfrGS7bX5QrrJmXL1HIV816q0OvhH9n
6dKCPpw0KoA7wuwPgJpkEoqVxn9MLjqdXesxHVxc0D7YCBLnTmmd7MGTgLU8hmwR
hfsDjNbOXpECAwEAAaN7MHkwCQYDVR0TBAIwADAsBglghkgBhvhCAQ0EHxYdT3Bl
blNTTCBHZW5lcmF0ZWQgQ2VydGlmaWNhdGUwHQYDVR0OBBYEFCK9BZILBP4L2PMl
QTduOwn6yKmfMB8GA1UdIwQYMBaAFDttawgSlrgwwc92/asJh/JfL2bzMA0GCSqG
SIb3DQEBBQUAA4GBAF8HoaHK8mnzwCDbs9mX09jMSua6zZdIlZAjqaTLIDfKl2WV
msVju4p1sQ2gAWqyHuU03bv+1I3HRnFDlFaaBM11ky32/wsZkWdS17+rfoQzQkff
0GTQAxFw1Ug6tlrDBfnG0FHXF6tJDzRVmXEFFBernzHtmPtXQsNXgBTKPINB
-----END CERTIFICATE-----
